target datalayout = "e-m:e-p270:32:32-p271:32:32-p272:64:64-i64:64-i128:128-f80:128-n8:16:32:64-S128"
target triple = "x86_64-pc-linux-gnu"

%struct.blob = type { ptr, ptr, i64, i64, i32 }
%struct.fileblob = type { ptr, i32, %struct.blob, ptr, ptr, i64, i8 }

@.str.2 = private unnamed_addr constant [108 x i8] c"generated/home/dtcxzyw/WorkSpace/Projects/compilers/llvm-opt-benchmark/bench/clamav/clamav/libclamav/blob.c\00", align 1
@.str.7 = private unnamed_addr constant [13 x i8] c"data != NULL\00", align 1
@__PRETTY_FUNCTION__.fileblobAddData = private unnamed_addr constant [63 x i8] c"int fileblobAddData(fileblob *, const unsigned char *, size_t)\00", align 1
@.str.31 = private unnamed_addr constant [61 x i8] c"fileblobAddData: Can't write %lu bytes to temporary file %s\0A\00", align 1

; Function Attrs: nounwind uwtable
define i32 @fileblobAddData(ptr noundef %0, ptr noundef %1, i64 noundef %2) #0 {
  %4 = alloca i32, align 4
  %5 = alloca ptr, align 8
  %6 = alloca ptr, align 8
  %7 = alloca i64, align 8
  store ptr %0, ptr %5, align 8
  store ptr %1, ptr %6, align 8
  store i64 %2, ptr %7, align 8
  %8 = load i64, ptr %7, align 8
  %9 = icmp eq i64 %8, 0
  br i1 %9, label %10, label %11

10:                                               ; preds = %3
  store i32 0, ptr %4, align 4
  br label %47

11:                                               ; preds = %3
  %12 = load ptr, ptr %6, align 8
  %13 = icmp ne ptr %12, null
  br i1 %13, label %14, label %15

14:                                               ; preds = %11
  br label %16

15:                                               ; preds = %11
  call void @__assert_fail(ptr noundef @.str.7, ptr noundef @.str.2, i32 noundef 579, ptr noundef @__PRETTY_FUNCTION__.fileblobAddData) #8
  unreachable

16:                                               ; preds = %14
  %17 = load ptr, ptr %5, align 8
  %18 = getelementptr inbounds %struct.fileblob, ptr %17, i32 0, i32 0
  %19 = load ptr, ptr %18, align 8
  %20 = icmp ne ptr %19, null
  br i1 %20, label %21, label %41

21:                                               ; preds = %16
  %22 = load ptr, ptr %6, align 8
  %23 = load i64, ptr %7, align 8
  %24 = load ptr, ptr %5, align 8
  %25 = getelementptr inbounds %struct.fileblob, ptr %24, i32 0, i32 0
  %26 = load ptr, ptr %25, align 8
  %27 = call i64 @fwrite(ptr noundef %22, i64 noundef %23, i64 noundef 1, ptr noundef %26)
  %28 = icmp ne i64 %27, 1
  br i1 %28, label %29, label %35

29:                                               ; preds = %21
  %30 = load i64, ptr %7, align 8
  %31 = load ptr, ptr %5, align 8
  %32 = getelementptr inbounds %struct.fileblob, ptr %31, i32 0, i32 2
  %33 = getelementptr inbounds %struct.blob, ptr %32, i32 0, i32 0
  %34 = load ptr, ptr %33, align 8
  call void (ptr, ...) @cli_errmsg(ptr noundef @.str.31, i64 noundef %30, ptr noundef %34)
  store i32 -1, ptr %4, align 4
  br label %47

35:                                               ; preds = %21
  %36 = load ptr, ptr %5, align 8
  %37 = getelementptr inbounds %struct.fileblob, ptr %36, i32 0, i32 6
  %38 = load i8, ptr %37, align 8
  %39 = and i8 %38, -2
  %40 = or i8 %39, 1
  store i8 %40, ptr %37, align 8
  store i32 0, ptr %4, align 4
  br label %47

41:                                               ; preds = %16
  %42 = load ptr, ptr %5, align 8
  %43 = getelementptr inbounds %struct.fileblob, ptr %42, i32 0, i32 2
  %44 = load ptr, ptr %6, align 8
  %45 = load i64, ptr %7, align 8
  %46 = call i32 @blobAddData(ptr noundef %43, ptr noundef %44, i64 noundef %45)
  store i32 %46, ptr %4, align 4
  br label %47

47:                                               ; preds = %41, %35, %29, %10
  %48 = load i32, ptr %4, align 4
  ret i32 %48
}