; Function Attrs: nounwind uwtable
define noundef i32 @fileblobAddData(ptr noundef %0, ptr noundef %1, i64 noundef %2) local_unnamed_addr #2 {
  %4 = icmp eq i64 %2, 0
  br i1 %4, label %21, label %5

5:                                                ; preds = %3
  %.not = icmp eq ptr %1, null
  br i1 %.not, label %6, label %7

6:                                                ; preds = %5
  tail call void @__assert_fail(ptr noundef nonnull @.str.7, ptr noundef nonnull @.str.2, i32 noundef 579, ptr noundef nonnull @__PRETTY_FUNCTION__.fileblobAddData) #17
  unreachable

7:                                                ; preds = %5
  %8 = load ptr, ptr %0, align 8
  %.not15 = icmp eq ptr %8, null
  br i1 %.not15, label %18, label %9

9:                                                ; preds = %7
  %10 = tail call i64 @fwrite(ptr noundef nonnull %1, i64 noundef %2, i64 noundef 1, ptr noundef nonnull %8)
  %.not16 = icmp eq i64 %10, 1
  br i1 %.not16, label %14, label %11

11:                                               ; preds = %9
  %12 = getelementptr inbounds i8, ptr %0, i64 16
  %13 = load ptr, ptr %12, align 8
  tail call void (ptr, ...) @cli_errmsg(ptr noundef nonnull @.str.31, i64 noundef %2, ptr noundef %13) #16
  br label %21

14:                                               ; preds = %9
  %15 = getelementptr inbounds i8, ptr %0, i64 80
  %16 = load i8, ptr %15, align 8
  %17 = or i8 %16, 1
  store i8 %17, ptr %15, align 8
  br label %21

18:                                               ; preds = %7
  %19 = getelementptr inbounds i8, ptr %0, i64 16
  %20 = tail call i32 @blobAddData(ptr noundef nonnull %19, ptr noundef nonnull %1, i64 noundef %2), !range !4
  br label %21

21:                                               ; preds = %3, %18, %14, %11
  %.0 = phi i32 [ -1, %11 ], [ 0, %14 ], [ %20, %18 ], [ 0, %3 ]
  ret i32 %.0
}